target datalayout = "e-m:e-p270:32:32-p271:32:32-p272:64:64-i64:64-i128:128-f80:128-n8:16:32:64-S128"
target triple = "x86_64-unknown-linux-gnu"

%"class.google::protobuf::compiler::csharp::FieldGeneratorBase" = type { %"class.google::protobuf::compiler::csharp::SourceGeneratorBase", ptr, i32, %"class.absl::lts_20230802::flat_hash_map" }
%"class.google::protobuf::compiler::csharp::SourceGeneratorBase" = type { ptr, ptr }
%"class.absl::lts_20230802::flat_hash_map" = type { %"class.absl::lts_20230802::container_internal::raw_hash_map" }
%"class.absl::lts_20230802::container_internal::raw_hash_map" = type { %"class.absl::lts_20230802::container_internal::raw_hash_set" }
%"class.absl::lts_20230802::container_internal::raw_hash_set" = type { %"class.absl::lts_20230802::container_internal::CompressedTuple" }
%"class.absl::lts_20230802::container_internal::CompressedTuple" = type { %"struct.absl::lts_20230802::container_internal::internal_compressed_tuple::CompressedTupleImpl" }
%"struct.absl::lts_20230802::container_internal::internal_compressed_tuple::CompressedTupleImpl" = type { %"struct.absl::lts_20230802::container_internal::internal_compressed_tuple::Storage" }
%"struct.absl::lts_20230802::container_internal::internal_compressed_tuple::Storage" = type { %"class.absl::lts_20230802::container_internal::CommonFields" }
%"class.absl::lts_20230802::container_internal::CommonFields" = type { ptr, ptr, i64, %"class.absl::lts_20230802::container_internal::CompressedTuple.0" }
%"class.absl::lts_20230802::container_internal::CompressedTuple.0" = type { %"struct.absl::lts_20230802::container_internal::internal_compressed_tuple::CompressedTupleImpl.1" }
%"struct.absl::lts_20230802::container_internal::internal_compressed_tuple::CompressedTupleImpl.1" = type { %"struct.absl::lts_20230802::container_internal::internal_compressed_tuple::Storage.2" }
%"struct.absl::lts_20230802::container_internal::internal_compressed_tuple::Storage.2" = type { i64 }

; Function Attrs: mustprogress nounwind uwtable
define hidden void @_ZN6google8protobuf8compiler6csharp21MessageFieldGeneratorD2Ev(ptr noundef nonnull align 8 dereferenceable(64) %this) unnamed_addr #5 align 2 {
entry:
  %this.addr = alloca ptr, align 8
  store ptr %this, ptr %this.addr, align 8
  %this1 = load ptr, ptr %this.addr, align 8
  call void @_ZN6google8protobuf8compiler6csharp18FieldGeneratorBaseD2Ev(ptr noundef nonnull align 8 dereferenceable(64) %this1) #3
  ret void
}

; Function Attrs: mustprogress uwtable
define hidden void @_ZN6google8protobuf8compiler6csharp26MessageOneofFieldGeneratorC2EPKNS0_15FieldDescriptorEiPKNS2_7OptionsE(ptr noundef nonnull align 8 dereferenceable(64) %this, ptr noundef %descriptor, i32 noundef %presenceIndex, ptr noundef %options) unnamed_addr #4 align 2 personality ptr @__gxx_personality_v0 {
entry:
  %this.addr = alloca ptr, align 8
  %descriptor.addr = alloca ptr, align 8
  %presenceIndex.addr = alloca i32, align 4
  %options.addr = alloca ptr, align 8
  %exn.slot = alloca ptr, align 8
  %ehselector.slot = alloca i32, align 4
  store ptr %this, ptr %this.addr, align 8
  store ptr %descriptor, ptr %descriptor.addr, align 8
  store i32 %presenceIndex, ptr %presenceIndex.addr, align 4
  store ptr %options, ptr %options.addr, align 8
  %this1 = load ptr, ptr %this.addr, align 8
  %0 = load ptr, ptr %descriptor.addr, align 8
  %1 = load i32, ptr %presenceIndex.addr, align 4
  %2 = load ptr, ptr %options.addr, align 8
  call void @_ZN6google8protobuf8compiler6csharp21MessageFieldGeneratorC2EPKNS0_15FieldDescriptorEiPKNS2_7OptionsE(ptr noundef nonnull align 8 dereferenceable(64) %this1, ptr noundef %0, i32 noundef %1, ptr noundef %2)
  store ptr getelementptr inbounds ({ [18 x ptr] }, ptr @_ZTVN6google8protobuf8compiler6csharp26MessageOneofFieldGeneratorE, i32 0, i32 0, i32 2), ptr %this1, align 8
  %variables_ = getelementptr inbounds %"class.google::protobuf::compiler::csharp::FieldGeneratorBase", ptr %this1, i32 0, i32 3
  invoke void @_ZN6google8protobuf8compiler6csharp18FieldGeneratorBase28SetCommonOneofFieldVariablesEPN4absl12lts_2023080213flat_hash_mapISt17basic_string_viewIcSt11char_traitsIcEENSt7__cxx1112basic_stringIcS9_SaIcEEENS5_18container_internal10StringHashENSF_8StringEqESaISt4pairIKSA_SE_EEEE(ptr noundef nonnull align 8 dereferenceable(64) %this1, ptr noundef %variables_)
          to label %invoke.cont unwind label %lpad

invoke.cont:                                      ; preds = %entry
  ret void

lpad:                                             ; preds = %entry
  %3 = landingpad { ptr, i32 }
          cleanup
  %4 = extractvalue { ptr, i32 } %3, 0
  store ptr %4, ptr %exn.slot, align 8
  %5 = extractvalue { ptr, i32 } %3, 1
  store i32 %5, ptr %ehselector.slot, align 4
  call void @_ZN6google8protobuf8compiler6csharp21MessageFieldGeneratorD2Ev(ptr noundef nonnull align 8 dereferenceable(64) %this1) #3
  br label %eh.resume

eh.resume:                                        ; preds = %lpad
  %exn = load ptr, ptr %exn.slot, align 8
  %sel = load i32, ptr %ehselector.slot, align 4
  %lpad.val = insertvalue { ptr, i32 } poison, ptr %exn, 0
  %lpad.val2 = insertvalue { ptr, i32 } %lpad.val, i32 %sel, 1
  resume { ptr, i32 } %lpad.val2
}